target datalayout = "e-m:e-p270:32:32-p271:32:32-p272:64:64-i64:64-i128:128-f80:128-n8:16:32:64-S128"
target triple = "x86_64-pc-linux-gnu"

%struct.dlist_node = type { ptr, ptr }
%struct.PMChild = type { i32, i32, i32, ptr, i8, %struct.dlist_node }

@.str.4 = private unnamed_addr constant [13 x i8] c"postmaster.c\00", align 1
@.str.69 = private unnamed_addr constant [8 x i8] c"SIGABRT\00", align 1
@.str.70 = private unnamed_addr constant [8 x i8] c"SIGKILL\00", align 1
@.str.117 = private unnamed_addr constant [47 x i8] c"sending signal %d/%s to %s process with pid %d\00", align 1
@__func__.signal_child = private unnamed_addr constant [13 x i8] c"signal_child\00", align 1
@.str.118 = private unnamed_addr constant [24 x i8] c"kill(%ld,%d) failed: %m\00", align 1
@.str.119 = private unnamed_addr constant [8 x i8] c"SIGCHLD\00", align 1
@.str.120 = private unnamed_addr constant [7 x i8] c"SIGHUP\00", align 1
@.str.121 = private unnamed_addr constant [7 x i8] c"SIGINT\00", align 1
@.str.122 = private unnamed_addr constant [8 x i8] c"SIGQUIT\00", align 1
@.str.123 = private unnamed_addr constant [8 x i8] c"SIGTERM\00", align 1
@.str.124 = private unnamed_addr constant [8 x i8] c"SIGUSR1\00", align 1
@.str.125 = private unnamed_addr constant [8 x i8] c"SIGUSR2\00", align 1
@.str.126 = private unnamed_addr constant [10 x i8] c"(unknown)\00", align 1

; Function Attrs: nounwind uwtable
define internal ptr @pm_signame(i32 noundef %0) #2 {
  %2 = alloca ptr, align 8
  %3 = alloca i32, align 4
  store i32 %0, ptr %3, align 4
  %4 = load i32, ptr %3, align 4
  switch i32 %4, label %14 [
    i32 6, label %5
    i32 17, label %6
    i32 1, label %7
    i32 2, label %8
    i32 9, label %9
    i32 3, label %10
    i32 15, label %11
    i32 10, label %12
    i32 12, label %13
  ]

5:                                                ; preds = %1
  store ptr @.str.69, ptr %2, align 8
  br label %15

6:                                                ; preds = %1
  store ptr @.str.119, ptr %2, align 8
  br label %15

7:                                                ; preds = %1
  store ptr @.str.120, ptr %2, align 8
  br label %15

8:                                                ; preds = %1
  store ptr @.str.121, ptr %2, align 8
  br label %15

9:                                                ; preds = %1
  store ptr @.str.70, ptr %2, align 8
  br label %15

10:                                               ; preds = %1
  store ptr @.str.122, ptr %2, align 8
  br label %15

11:                                               ; preds = %1
  store ptr @.str.123, ptr %2, align 8
  br label %15

12:                                               ; preds = %1
  store ptr @.str.124, ptr %2, align 8
  br label %15

13:                                               ; preds = %1
  store ptr @.str.125, ptr %2, align 8
  br label %15

14:                                               ; preds = %1
  store ptr @.str.126, ptr %2, align 8
  br label %15

15:                                               ; preds = %14, %13, %12, %11, %10, %9, %8, %7, %6, %5
  %16 = load ptr, ptr %2, align 8
  ret ptr %16
}

; Function Attrs: nounwind uwtable
define internal void @signal_child(ptr noundef %0, i32 noundef %1) #2 {
  %3 = alloca ptr, align 8
  %4 = alloca i32, align 4
  %5 = alloca i32, align 4
  store ptr %0, ptr %3, align 8
  store i32 %1, ptr %4, align 4
  call void @llvm.lifetime.start.p0(i64 4, ptr %5) #15
  %6 = load ptr, ptr %3, align 8
  %7 = getelementptr inbounds nuw %struct.PMChild, ptr %6, i32 0, i32 0
  %8 = load i32, ptr %7, align 8
  store i32 %8, ptr %5, align 4
  br label %9

9:                                                ; preds = %2
  br i1 false, label %10, label %12

10:                                               ; preds = %9
  %11 = call zeroext i1 @errstart_cold(i32 noundef 12, ptr noundef null) #16
  br i1 %11, label %14, label %26

12:                                               ; preds = %9
  %13 = call zeroext i1 @errstart(i32 noundef 12, ptr noundef null)
  br i1 %13, label %14, label %26

14:                                               ; preds = %12, %10
  %15 = load i32, ptr %4, align 4
  %16 = load i32, ptr %4, align 4
  %17 = call ptr @pm_signame(i32 noundef %16)
  %18 = load ptr, ptr %3, align 8
  %19 = getelementptr inbounds nuw %struct.PMChild, ptr %18, i32 0, i32 2
  %20 = load i32, ptr %19, align 8
  %21 = call ptr @GetBackendTypeDesc(i32 noundef %20)
  %22 = load ptr, ptr %3, align 8
  %23 = getelementptr inbounds nuw %struct.PMChild, ptr %22, i32 0, i32 0
  %24 = load i32, ptr %23, align 8
  %25 = call i32 (ptr, ...) @errmsg_internal(ptr noundef @.str.117, i32 noundef %15, ptr noundef %17, ptr noundef %21, i32 noundef %24)
  call void @errfinish(ptr noundef @.str.4, i32 noundef 3395, ptr noundef @__func__.signal_child)
  br label %26

26:                                               ; preds = %14, %12, %10
  br label %27

27:                                               ; preds = %26
  br label %28

28:                                               ; preds = %27
  %29 = load i32, ptr %5, align 4
  %30 = load i32, ptr %4, align 4
  %31 = call i32 @kill(i32 noundef %29, i32 noundef %30) #15
  %32 = icmp slt i32 %31, 0
  br i1 %32, label %33, label %47

33:                                               ; preds = %28
  br label %34

34:                                               ; preds = %33
  br i1 false, label %35, label %37

35:                                               ; preds = %34
  %36 = call zeroext i1 @errstart_cold(i32 noundef 12, ptr noundef null) #16
  br i1 %36, label %39, label %44

37:                                               ; preds = %34
  %38 = call zeroext i1 @errstart(i32 noundef 12, ptr noundef null)
  br i1 %38, label %39, label %44

39:                                               ; preds = %37, %35
  %40 = load i32, ptr %5, align 4
  %41 = sext i32 %40 to i64
  %42 = load i32, ptr %4, align 4
  %43 = call i32 (ptr, ...) @errmsg_internal(ptr noundef @.str.118, i64 noundef %41, i32 noundef %42)
  call void @errfinish(ptr noundef @.str.4, i32 noundef 3398, ptr noundef @__func__.signal_child)
  br label %44

44:                                               ; preds = %39, %37, %35
  br label %45

45:                                               ; preds = %44
  br label %46

46:                                               ; preds = %45
  br label %47

47:                                               ; preds = %46, %28
  %48 = load i32, ptr %4, align 4
  switch i32 %48, label %71 [
    i32 2, label %49
    i32 15, label %49
    i32 3, label %49
    i32 9, label %49
    i32 6, label %49
  ]

49:                                               ; preds = %47, %47, %47, %47, %47
  %50 = load i32, ptr %5, align 4
  %51 = sub i32 0, %50
  %52 = load i32, ptr %4, align 4
  %53 = call i32 @kill(i32 noundef %51, i32 noundef %52) #15
  %54 = icmp slt i32 %53, 0
  br i1 %54, label %55, label %70

55:                                               ; preds = %49
  br label %56

56:                                               ; preds = %55
  br i1 false, label %57, label %59

57:                                               ; preds = %56
  %58 = call zeroext i1 @errstart_cold(i32 noundef 12, ptr noundef null) #16
  br i1 %58, label %61, label %67

59:                                               ; preds = %56
  %60 = call zeroext i1 @errstart(i32 noundef 12, ptr noundef null)
  br i1 %60, label %61, label %67

61:                                               ; preds = %59, %57
  %62 = load i32, ptr %5, align 4
  %63 = sub i32 0, %62
  %64 = sext i32 %63 to i64
  %65 = load i32, ptr %4, align 4
  %66 = call i32 (ptr, ...) @errmsg_internal(ptr noundef @.str.118, i64 noundef %64, i32 noundef %65)
  call void @errfinish(ptr noundef @.str.4, i32 noundef 3408, ptr noundef @__func__.signal_child)
  br label %67

67:                                               ; preds = %61, %59, %57
  br label %68

68:                                               ; preds = %67
  br label %69

69:                                               ; preds = %68
  br label %70

70:                                               ; preds = %69, %49
  br label %72

71:                                               ; preds = %47
  br label %72

72:                                               ; preds = %71, %70
  call void @llvm.lifetime.end.p0(i64 4, ptr %5) #15
  ret void
}