; Function Attrs: nounwind uwtable
define internal fastcc void @signal_child(ptr noundef readonly captures(none) %0, i32 noundef range(i32 1, 16) %1) unnamed_addr #2 {
  %3 = load i32, ptr %0, align 8
  %4 = tail call zeroext i1 @errstart(i32 noundef 12, ptr noundef null) #18
  br i1 %4, label %switch.lookup, label %11

switch.lookup:                                    ; preds = %2
  %switch.tableidx = add nsw i32 %1, -1
  %5 = sext i32 %switch.tableidx to i64
  %switch.gep = getelementptr inbounds [15 x ptr], ptr @switch.table.signal_child, i64 0, i64 %5
  %switch.load = load ptr, ptr %switch.gep, align 8
  %6 = getelementptr inbounds nuw i8, ptr %0, i64 8
  %7 = load i32, ptr %6, align 8
  %8 = tail call ptr @GetBackendTypeDesc(i32 noundef %7) #18
  %9 = load i32, ptr %0, align 8
  %10 = tail call i32 (ptr, ...) @errmsg_internal(ptr noundef nonnull @.str.117, i32 noundef %1, ptr noundef nonnull %switch.load, ptr noundef %8, i32 noundef %9) #18
  tail call void @errfinish(ptr noundef nonnull @.str.4, i32 noundef 3395, ptr noundef nonnull @__func__.signal_child) #18
  br label %11

11:                                               ; preds = %switch.lookup, %2
  %12 = tail call i32 @kill(i32 noundef %3, i32 noundef %1) #18
  %13 = icmp slt i32 %12, 0
  br i1 %13, label %14, label %19

14:                                               ; preds = %11
  %15 = tail call zeroext i1 @errstart(i32 noundef 12, ptr noundef null) #18
  br i1 %15, label %16, label %19

16:                                               ; preds = %14
  %17 = sext i32 %3 to i64
  %18 = tail call i32 (ptr, ...) @errmsg_internal(ptr noundef nonnull @.str.118, i64 noundef %17, i32 noundef %1) #18
  tail call void @errfinish(ptr noundef nonnull @.str.4, i32 noundef 3398, ptr noundef nonnull @__func__.signal_child) #18
  br label %19

19:                                               ; preds = %14, %16, %11
  switch i32 %1, label %29 [
    i32 2, label %20
    i32 15, label %20
    i32 3, label %20
    i32 9, label %20
    i32 6, label %20
  ]

20:                                               ; preds = %19, %19, %19, %19, %19
  %21 = sub i32 0, %3
  %22 = tail call i32 @kill(i32 noundef %21, i32 noundef %1) #18
  %23 = icmp slt i32 %22, 0
  br i1 %23, label %24, label %29

24:                                               ; preds = %20
  %25 = tail call zeroext i1 @errstart(i32 noundef 12, ptr noundef null) #18
  br i1 %25, label %26, label %29

26:                                               ; preds = %24
  %27 = sext i32 %21 to i64
  %28 = tail call i32 (ptr, ...) @errmsg_internal(ptr noundef nonnull @.str.118, i64 noundef %27, i32 noundef %1) #18
  tail call void @errfinish(ptr noundef nonnull @.str.4, i32 noundef 3408, ptr noundef nonnull @__func__.signal_child) #18
  br label %29

29:                                               ; preds = %19, %20, %26, %24
  ret void
}